target datalayout = "e-m:e-p270:32:32-p271:32:32-p272:64:64-i64:64-i128:128-f80:128-n8:16:32:64-S128"
target triple = "x86_64-unknown-linux-gnu"

%struct.nstime_t = type { i64 }
%struct.malloc_mutex_s = type { %union.anon }
%union.anon = type { %struct.anon }
%struct.anon = type { %struct.mutex_prof_data_t, %union.pthread_mutex_t, %struct.atomic_b_t }
%struct.mutex_prof_data_t = type { %struct.nstime_t, %struct.nstime_t, i64, i64, i32, %struct.atomic_u32_t, i64, ptr, i64 }
%struct.atomic_u32_t = type { i32 }
%union.pthread_mutex_t = type { %struct.__pthread_mutex_s }
%struct.__pthread_mutex_s = type { i32, i32, i32, i32, i32, i16, i16, %struct.__pthread_internal_list }
%struct.__pthread_internal_list = type { ptr, ptr }
%struct.atomic_b_t = type { i8 }
%struct.tsd_s = type { i8, i8, i64, i64, i64, i64, i64, i64, i64, i64, i64, i64, i64, i64, ptr, i64, i64, i64, ptr, ptr, %struct.ticker_geom_s, i8, %struct.tsd_binshards_s, %struct.tsd_link_t, i8, %struct.peak_s, %struct.activity_callback_thunk_s, %struct.tcache_slow_s, %struct.rtree_ctx_s, %struct.atomic_u8_t, i64, i64, i64, i64, %struct.tcache_s, %struct.witness_tsd_s }
%struct.ticker_geom_s = type { i32, i32 }
%struct.tsd_binshards_s = type { [39 x i8] }
%struct.tsd_link_t = type { ptr, ptr }
%struct.peak_s = type { i64, i64 }
%struct.activity_callback_thunk_s = type { ptr, ptr }
%struct.tcache_slow_s = type { %struct.anon.1, %struct.cache_bin_array_descriptor_s, ptr, i32, [39 x i8], [39 x i8], [39 x i8], ptr, ptr }
%struct.anon.1 = type { ptr, ptr }
%struct.cache_bin_array_descriptor_s = type { %struct.anon.2, ptr }
%struct.anon.2 = type { ptr, ptr }
%struct.rtree_ctx_s = type { [16 x %struct.rtree_ctx_cache_elm_s], [8 x %struct.rtree_ctx_cache_elm_s] }
%struct.rtree_ctx_cache_elm_s = type { i64, ptr }
%struct.atomic_u8_t = type { i8 }
%struct.tcache_s = type { ptr, [76 x %struct.cache_bin_s] }
%struct.cache_bin_s = type { ptr, %struct.cache_bin_stats_s, i16, i16, i16 }
%struct.cache_bin_stats_s = type { i64 }
%struct.witness_tsd_s = type { %struct.witness_list_t, i8 }
%struct.witness_list_t = type { ptr }

@nstime_zero = internal constant %struct.nstime_t zeroinitializer, align 8

; Function Attrs: nounwind uwtable
define internal void @witness_assert_owner(ptr noundef %witness_tsdn, ptr noundef %witness) #0 {
entry:
  %witness_tsdn.addr = alloca ptr, align 8
  %witness.addr = alloca ptr, align 8
  store ptr %witness_tsdn, ptr %witness_tsdn.addr, align 8
  store ptr %witness, ptr %witness.addr, align 8
  ret void
}

; Function Attrs: nounwind uwtable
define internal void @mutex_prof_data_init(ptr noundef %data) #0 {
entry:
  %time.addr.i1 = alloca ptr, align 8
  %time.addr.i = alloca ptr, align 8
  %data.addr = alloca ptr, align 8
  store ptr %data, ptr %data.addr, align 8
  %0 = load ptr, ptr %data.addr, align 8
  call void @llvm.memset.p0.i64(ptr align 8 %0, i8 0, i64 64, i1 false)
  %1 = load ptr, ptr %data.addr, align 8
  %max_wait_time = getelementptr inbounds %struct.mutex_prof_data_t, ptr %1, i32 0, i32 1
  store ptr %max_wait_time, ptr %time.addr.i1, align 8
  %2 = load ptr, ptr %time.addr.i1, align 8
  call void @nstime_copy(ptr noundef %2, ptr noundef @nstime_zero) #5
  %3 = load ptr, ptr %data.addr, align 8
  %tot_wait_time = getelementptr inbounds %struct.mutex_prof_data_t, ptr %3, i32 0, i32 0
  store ptr %tot_wait_time, ptr %time.addr.i, align 8
  %4 = load ptr, ptr %time.addr.i, align 8
  call void @nstime_copy(ptr noundef %4, ptr noundef @nstime_zero) #5
  %5 = load ptr, ptr %data.addr, align 8
  %prev_owner = getelementptr inbounds %struct.mutex_prof_data_t, ptr %5, i32 0, i32 7
  store ptr null, ptr %prev_owner, align 8
  ret void
}

; Function Attrs: nounwind uwtable
define internal void @malloc_mutex_assert_owner(ptr noundef %tsdn, ptr noundef %mutex) #0 {
entry:
  %tsd.addr.i5 = alloca ptr, align 8
  %tsd.addr.i3 = alloca ptr, align 8
  %tsd.addr.i = alloca ptr, align 8
  %state.i = alloca i8, align 1
  %tsdn.addr.i2 = alloca ptr, align 8
  %tsdn.addr.i1 = alloca ptr, align 8
  %retval.i = alloca ptr, align 8
  %tsdn.addr.i = alloca ptr, align 8
  %tsd.i = alloca ptr, align 8
  %tsdn.addr = alloca ptr, align 8
  %mutex.addr = alloca ptr, align 8
  store ptr %tsdn, ptr %tsdn.addr, align 8
  store ptr %mutex, ptr %mutex.addr, align 8
  %0 = load ptr, ptr %tsdn.addr, align 8
  store ptr %0, ptr %tsdn.addr.i, align 8
  %1 = load ptr, ptr %tsdn.addr.i, align 8
  store ptr %1, ptr %tsdn.addr.i1, align 8
  %2 = load ptr, ptr %tsdn.addr.i1, align 8
  %cmp.i = icmp eq ptr %2, null
  br i1 %cmp.i, label %if.then.i, label %if.end.i

if.then.i:                                        ; preds = %entry
  store ptr null, ptr %retval.i, align 8
  br label %tsdn_witness_tsdp_get.exit

if.end.i:                                         ; preds = %entry
  %3 = load ptr, ptr %tsdn.addr.i, align 8
  store ptr %3, ptr %tsdn.addr.i2, align 8
  %4 = load ptr, ptr %tsdn.addr.i2, align 8
  store ptr %4, ptr %tsd.i, align 8
  %5 = load ptr, ptr %tsd.i, align 8
  store ptr %5, ptr %tsd.addr.i, align 8
  %6 = load ptr, ptr %tsd.addr.i, align 8
  store ptr %6, ptr %tsd.addr.i3, align 8
  %7 = load ptr, ptr %tsd.addr.i3, align 8
  %state.i4 = getelementptr inbounds %struct.tsd_s, ptr %7, i32 0, i32 29
  %8 = load i8, ptr %state.i4, align 8
  store i8 %8, ptr %state.i, align 1
  %9 = load ptr, ptr %tsd.addr.i, align 8
  store ptr %9, ptr %tsd.addr.i5, align 8
  %10 = load ptr, ptr %tsd.addr.i5, align 8
  %cant_access_tsd_items_directly_use_a_getter_or_setter_witness_tsd.i = getelementptr inbounds %struct.tsd_s, ptr %10, i32 0, i32 35
  store ptr %cant_access_tsd_items_directly_use_a_getter_or_setter_witness_tsd.i, ptr %retval.i, align 8
  br label %tsdn_witness_tsdp_get.exit

tsdn_witness_tsdp_get.exit:                       ; preds = %if.end.i, %if.then.i
  %11 = load ptr, ptr %retval.i, align 8
  %12 = load ptr, ptr %mutex.addr, align 8
  %13 = getelementptr inbounds %struct.malloc_mutex_s, ptr %12, i32 0, i32 0
  call void @witness_assert_owner(ptr noundef %11, ptr noundef %13)
  ret void
}

; Function Attrs: nounwind uwtable
define hidden void @malloc_mutex_prof_data_reset(ptr noundef %tsdn, ptr noundef %mutex) #0 {
entry:
  %tsdn.addr = alloca ptr, align 8
  %mutex.addr = alloca ptr, align 8
  store ptr %tsdn, ptr %tsdn.addr, align 8
  store ptr %mutex, ptr %mutex.addr, align 8
  %0 = load ptr, ptr %tsdn.addr, align 8
  %1 = load ptr, ptr %mutex.addr, align 8
  call void @malloc_mutex_assert_owner(ptr noundef %0, ptr noundef %1)
  %2 = load ptr, ptr %mutex.addr, align 8
  %3 = getelementptr inbounds %struct.malloc_mutex_s, ptr %2, i32 0, i32 0
  %prof_data = getelementptr inbounds %struct.anon, ptr %3, i32 0, i32 0
  call void @mutex_prof_data_init(ptr noundef %prof_data)
  ret void
}