; Function Attrs: nounwind uwtable
define hidden void @malloc_mutex_prof_data_reset(ptr nocapture noundef readnone %tsdn, ptr noundef %mutex) local_unnamed_addr #0 {
entry:
  tail call void @llvm.memset.p0.i64(ptr noundef nonnull align 8 dereferenceable(64) %mutex, i8 0, i64 64, i1 false)
  %max_wait_time.i = getelementptr inbounds i8, ptr %mutex, i64 8
  tail call void @nstime_copy(ptr noundef nonnull %max_wait_time.i, ptr noundef nonnull @nstime_zero) #7
  tail call void @nstime_copy(ptr noundef %mutex, ptr noundef nonnull @nstime_zero) #7
  %prev_owner.i = getelementptr inbounds i8, ptr %mutex, i64 48
  store ptr null, ptr %prev_owner.i, align 8
  ret void
}